target datalayout = "e-m:e-p270:32:32-p271:32:32-p272:64:64-i64:64-i128:128-f80:128-n8:16:32:64-S128"
target triple = "x86_64-pc-linux-gnu"

%struct.CONF_VALUE = type { ptr, ptr, ptr }

@.str.22 = private unnamed_addr constant [12 x i8] c"[%s] %s=%s\0A\00", align 1
@.str.23 = private unnamed_addr constant [8 x i8] c"[[%s]]\0A\00", align 1

; Function Attrs: nounwind uwtable
define internal void @dump_value_doall_arg(ptr noundef %0, ptr noundef %1) #0 {
  %3 = alloca ptr, align 8
  %4 = alloca ptr, align 8
  store ptr %0, ptr %3, align 8, !tbaa !28
  store ptr %1, ptr %4, align 8, !tbaa !19
  %5 = load ptr, ptr %3, align 8, !tbaa !28
  %6 = getelementptr inbounds nuw %struct.CONF_VALUE, ptr %5, i32 0, i32 1
  %7 = load ptr, ptr %6, align 8, !tbaa !42
  %8 = icmp ne ptr %7, null
  br i1 %8, label %9, label %21

9:                                                ; preds = %2
  %10 = load ptr, ptr %4, align 8, !tbaa !19
  %11 = load ptr, ptr %3, align 8, !tbaa !28
  %12 = getelementptr inbounds nuw %struct.CONF_VALUE, ptr %11, i32 0, i32 0
  %13 = load ptr, ptr %12, align 8, !tbaa !73
  %14 = load ptr, ptr %3, align 8, !tbaa !28
  %15 = getelementptr inbounds nuw %struct.CONF_VALUE, ptr %14, i32 0, i32 1
  %16 = load ptr, ptr %15, align 8, !tbaa !42
  %17 = load ptr, ptr %3, align 8, !tbaa !28
  %18 = getelementptr inbounds nuw %struct.CONF_VALUE, ptr %17, i32 0, i32 2
  %19 = load ptr, ptr %18, align 8, !tbaa !44
  %20 = call i32 (ptr, ptr, ...) @BIO_printf(ptr noundef %10, ptr noundef @.str.22, ptr noundef %13, ptr noundef %16, ptr noundef %19)
  br label %27

21:                                               ; preds = %2
  %22 = load ptr, ptr %4, align 8, !tbaa !19
  %23 = load ptr, ptr %3, align 8, !tbaa !28
  %24 = getelementptr inbounds nuw %struct.CONF_VALUE, ptr %23, i32 0, i32 0
  %25 = load ptr, ptr %24, align 8, !tbaa !73
  %26 = call i32 (ptr, ptr, ...) @BIO_printf(ptr noundef %22, ptr noundef @.str.23, ptr noundef %25)
  br label %27

27:                                               ; preds = %21, %9
  ret void
}