; Function Attrs: nounwind uwtable
define internal void @dump_value_doall_arg(ptr noundef readonly captures(none) %0, ptr noundef %1) #1 {
  %3 = getelementptr inbounds nuw i8, ptr %0, i64 8
  %4 = load ptr, ptr %3, align 8, !tbaa !34
  %.not = icmp eq ptr %4, null
  %5 = load ptr, ptr %0, align 8, !tbaa !51
  br i1 %.not, label %10, label %6

6:                                                ; preds = %2
  %7 = getelementptr inbounds nuw i8, ptr %0, i64 16
  %8 = load ptr, ptr %7, align 8, !tbaa !36
  %9 = tail call i32 (ptr, ptr, ...) @BIO_printf(ptr noundef %1, ptr noundef nonnull @.str.22, ptr noundef %5, ptr noundef nonnull %4, ptr noundef %8) #15
  br label %12

10:                                               ; preds = %2
  %11 = tail call i32 (ptr, ptr, ...) @BIO_printf(ptr noundef %1, ptr noundef nonnull @.str.23, ptr noundef %5) #15
  br label %12

12:                                               ; preds = %10, %6
  ret void
}